; Function Attrs: mustprogress nofree nounwind willreturn uwtable
define internal void @"_ZNSt17_Function_handlerIFvPKcEZ4mainE3$_9E9_M_invokeERKSt9_Any_dataOS1_"(ptr nocapture noundef nonnull readonly align 8 dereferenceable(16) %0, ptr nocapture noundef nonnull readonly align 8 dereferenceable(8) %1) #24 align 2 personality ptr @__gxx_personality_v0 {
  %.val = load ptr, ptr %1, align 8
  %3 = tail call i64 @strtoull(ptr nocapture noundef %.val, ptr noundef null, i32 noundef 0) #34
  %4 = load ptr, ptr %0, align 8
  %5 = getelementptr inbounds i8, ptr %4, i64 104
  %6 = load i8, ptr %5, align 8
  %7 = and i8 %6, 1
  %.not.i.i.i.i = icmp eq i8 %7, 0
  br i1 %.not.i.i.i.i, label %8, label %"_ZSt10__invoke_rIvRZ4mainE3$_9JPKcEENSt9enable_ifIX16is_invocable_r_vIT_T0_DpT1_EES5_E4typeEOS6_DpOS7_.exit"

8:                                                ; preds = %2
  store i8 1, ptr %5, align 8
  br label %"_ZSt10__invoke_rIvRZ4mainE3$_9JPKcEENSt9enable_ifIX16is_invocable_r_vIT_T0_DpT1_EES5_E4typeEOS6_DpOS7_.exit"

"_ZSt10__invoke_rIvRZ4mainE3$_9JPKcEENSt9enable_ifIX16is_invocable_r_vIT_T0_DpT1_EES5_E4typeEOS6_DpOS7_.exit": ; preds = %2, %8
  %9 = getelementptr inbounds i8, ptr %4, i64 96
  store i64 %3, ptr %9, align 8
  ret void
}